; Function Attrs: nounwind uwtable
define dso_local range(i64 0, 2147483648) i64 @int4lcm(ptr noundef readonly captures(none) %0) local_unnamed_addr #0 {
  %2 = getelementptr inbounds nuw i8, ptr %0, i64 32
  %3 = load i64, ptr %2, align 8
  %4 = trunc i64 %3 to i32
  %5 = getelementptr inbounds nuw i8, ptr %0, i64 48
  %6 = load i64, ptr %5, align 8
  %7 = trunc i64 %6 to i32
  %8 = icmp eq i32 %4, 0
  %9 = icmp eq i32 %7, 0
  %or.cond = select i1 %8, i1 true, i1 %9
  br i1 %or.cond, label %41, label %10

10:                                               ; preds = %1
  %11 = tail call i32 @llvm.abs.i32(i32 %4, i1 false)
  %12 = sub i32 0, %11
  %13 = tail call i32 @llvm.abs.i32(i32 %7, i1 false)
  %14 = sub i32 0, %13
  %15 = icmp samesign ugt i32 %12, %14
  %spec.select.i = select i1 %15, i32 %4, i32 %7
  %spec.select28.i = select i1 %15, i32 %7, i32 %4
  %16 = icmp eq i32 %spec.select28.i, -2147483648
  br i1 %16, label %17, label %.lr.ph.i.preheader

17:                                               ; preds = %10
  %18 = and i32 %spec.select.i, 2147483647
  %or.cond.i = icmp eq i32 %18, 0
  br i1 %or.cond.i, label %19, label %23

19:                                               ; preds = %17
  %20 = tail call zeroext i1 @errstart_cold(i32 noundef 21, ptr noundef null) #15
  tail call void @llvm.assume(i1 %20)
  %21 = tail call i32 @errcode(i32 noundef 50331778) #13
  %22 = tail call i32 (ptr, ...) @errmsg(ptr noundef nonnull @.str.7) #13
  tail call void @errfinish(ptr noundef nonnull @.str.2, i32 noundef 1263, ptr noundef nonnull @__func__.int4gcd_internal) #13
  unreachable

23:                                               ; preds = %17
  %cond.i = icmp eq i32 %spec.select.i, -1
  br i1 %cond.i, label %int4gcd_internal.exit, label %.lr.ph.i.preheader

.lr.ph.i.preheader:                               ; preds = %10, %23
  br label %.lr.ph.i

.lr.ph.i:                                         ; preds = %.lr.ph.i.preheader, %.lr.ph.i
  %.132.i = phi i32 [ %.12731.i, %.lr.ph.i ], [ %spec.select28.i, %.lr.ph.i.preheader ]
  %.12731.i = phi i32 [ %24, %.lr.ph.i ], [ %spec.select.i, %.lr.ph.i.preheader ]
  %24 = srem i32 %.132.i, %.12731.i
  %.not.i = icmp eq i32 %24, 0
  br i1 %.not.i, label %._crit_edge.i, label %.lr.ph.i, !llvm.loop !16

._crit_edge.i:                                    ; preds = %.lr.ph.i
  %spec.select29.i = tail call i32 @llvm.abs.i32(i32 %.12731.i, i1 false)
  br label %int4gcd_internal.exit

int4gcd_internal.exit:                            ; preds = %23, %._crit_edge.i
  %.0.i = phi i32 [ %spec.select29.i, %._crit_edge.i ], [ 1, %23 ]
  %25 = sdiv i32 %4, %.0.i
  %26 = tail call { i32, i1 } @llvm.smul.with.overflow.i32(i32 %25, i32 %7)
  %27 = extractvalue { i32, i1 } %26, 1
  %28 = extractvalue { i32, i1 } %26, 0
  br i1 %27, label %29, label %33, !prof !14

29:                                               ; preds = %int4gcd_internal.exit
  %30 = tail call zeroext i1 @errstart_cold(i32 noundef 21, ptr noundef null) #15
  tail call void @llvm.assume(i1 %30)
  %31 = tail call i32 @errcode(i32 noundef 50331778) #13
  %32 = tail call i32 (ptr, ...) @errmsg(ptr noundef nonnull @.str.7) #13
  tail call void @errfinish(ptr noundef nonnull @.str.2, i32 noundef 1331, ptr noundef nonnull @__func__.int4lcm) #13
  unreachable

33:                                               ; preds = %int4gcd_internal.exit
  %34 = icmp eq i32 %28, -2147483648
  br i1 %34, label %35, label %39, !prof !14

35:                                               ; preds = %33
  %36 = tail call zeroext i1 @errstart_cold(i32 noundef 21, ptr noundef null) #15
  tail call void @llvm.assume(i1 %36)
  %37 = tail call i32 @errcode(i32 noundef 50331778) #13
  %38 = tail call i32 (ptr, ...) @errmsg(ptr noundef nonnull @.str.7) #13
  tail call void @errfinish(ptr noundef nonnull @.str.2, i32 noundef 1337, ptr noundef nonnull @__func__.int4lcm) #13
  unreachable

39:                                               ; preds = %33
  %spec.select = tail call i32 @llvm.abs.i32(i32 %28, i1 true)
  %40 = zext nneg i32 %spec.select to i64
  br label %41

41:                                               ; preds = %1, %39
  %.0 = phi i64 [ %40, %39 ], [ 0, %1 ]
  ret i64 %.0
}